; ModuleID = '32/1600.c'
source_filename = "32/1600.c"
target datalayout = "e-m:e-p270:32:32-p271:32:32-p272:64:64-i64:64-f80:128-n8:16:32:64-S128"
target triple = "x86_64-pc-linux-gnu"

@.str = private unnamed_addr constant [3 x i8] c"%d\00", align 1
@.str.1 = private unnamed_addr constant [3 x i8] c"%s\00", align 1
@.str.2 = private unnamed_addr constant [3 x i8] c"%c\00", align 1
@.str.3 = private unnamed_addr constant [2 x i8] c"\0A\00", align 1

; Function Attrs: noinline nounwind uwtable
define dso_local void @main() #0 {
  %1 = alloca [101 x i8], align 16
  %2 = alloca [101 x i8], align 16
  %3 = alloca i32, align 4
  %4 = alloca i32, align 4
  %5 = alloca i32, align 4
  %6 = alloca i32, align 4
  %7 = alloca i32, align 4
  %8 = alloca i32, align 4
  store i32 102, i32* %7, align 4
  store i32 0, i32* %8, align 4
  %9 = call i32 (i8*, ...) @__isoc99_scanf(i8* getelementptr inbounds ([3 x i8], [3 x i8]* @.str, i64 0, i64 0), i32* %5)
  store i32 1, i32* %4, align 4
  br label %10

10:                                               ; preds = %177, %0
  %11 = load i32, i32* %4, align 4
  %12 = load i32, i32* %5, align 4
  %13 = icmp sle i32 %11, %12
  br i1 %13, label %14, label %180

14:                                               ; preds = %10
  %15 = getelementptr inbounds [101 x i8], [101 x i8]* %1, i64 0, i64 0
  %16 = call i32 (i8*, ...) @__isoc99_scanf(i8* getelementptr inbounds ([3 x i8], [3 x i8]* @.str.1, i64 0, i64 0), i8* %15)
  %17 = getelementptr inbounds [101 x i8], [101 x i8]* %2, i64 0, i64 0
  %18 = call i32 (i8*, ...) @__isoc99_scanf(i8* getelementptr inbounds ([3 x i8], [3 x i8]* @.str.1, i64 0, i64 0), i8* %17)
  %19 = getelementptr inbounds [101 x i8], [101 x i8]* %1, i64 0, i64 0
  %20 = call i64 @strlen(i8* %19) #3
  %21 = getelementptr inbounds [101 x i8], [101 x i8]* %2, i64 0, i64 0
  %22 = call i64 @strlen(i8* %21) #3
  %23 = sub i64 %20, %22
  %24 = trunc i64 %23 to i32
  store i32 %24, i32* %3, align 4
  %25 = getelementptr inbounds [101 x i8], [101 x i8]* %1, i64 0, i64 0
  %26 = call i64 @strlen(i8* %25) #3
  %27 = sub i64 %26, 1
  %28 = trunc i64 %27 to i32
  store i32 %28, i32* %6, align 4
  br label %29

29:                                               ; preds = %96, %14
  %30 = load i32, i32* %6, align 4
  %31 = load i32, i32* %3, align 4
  %32 = icmp sge i32 %30, %31
  br i1 %32, label %33, label %99

33:                                               ; preds = %29
  %34 = load i32, i32* %8, align 4
  %35 = icmp ne i32 %34, 0
  br i1 %35, label %36, label %42

36:                                               ; preds = %33
  %37 = load i32, i32* %6, align 4
  %38 = sext i32 %37 to i64
  %39 = getelementptr inbounds [101 x i8], [101 x i8]* %1, i64 0, i64 %38
  %40 = load i8, i8* %39, align 1
  %41 = add i8 %40, -1
  store i8 %41, i8* %39, align 1
  br label %42

42:                                               ; preds = %36, %33
  %43 = load i32, i32* %6, align 4
  %44 = sext i32 %43 to i64
  %45 = getelementptr inbounds [101 x i8], [101 x i8]* %1, i64 0, i64 %44
  %46 = load i8, i8* %45, align 1
  %47 = sext i8 %46 to i32
  %48 = load i32, i32* %6, align 4
  %49 = load i32, i32* %3, align 4
  %50 = sub nsw i32 %48, %49
  %51 = sext i32 %50 to i64
  %52 = getelementptr inbounds [101 x i8], [101 x i8]* %2, i64 0, i64 %51
  %53 = load i8, i8* %52, align 1
  %54 = sext i8 %53 to i32
  %55 = icmp sge i32 %47, %54
  br i1 %55, label %56, label %75

56:                                               ; preds = %42
  %57 = load i32, i32* %6, align 4
  %58 = sext i32 %57 to i64
  %59 = getelementptr inbounds [101 x i8], [101 x i8]* %1, i64 0, i64 %58
  %60 = load i8, i8* %59, align 1
  %61 = sext i8 %60 to i32
  %62 = load i32, i32* %6, align 4
  %63 = load i32, i32* %3, align 4
  %64 = sub nsw i32 %62, %63
  %65 = sext i32 %64 to i64
  %66 = getelementptr inbounds [101 x i8], [101 x i8]* %2, i64 0, i64 %65
  %67 = load i8, i8* %66, align 1
  %68 = sext i8 %67 to i32
  %69 = sub nsw i32 %61, %68
  %70 = add nsw i32 %69, 48
  %71 = trunc i32 %70 to i8
  %72 = load i32, i32* %6, align 4
  %73 = sext i32 %72 to i64
  %74 = getelementptr inbounds [101 x i8], [101 x i8]* %1, i64 0, i64 %73
  store i8 %71, i8* %74, align 1
  store i32 0, i32* %8, align 4
  br label %95

75:                                               ; preds = %42
  %76 = load i32, i32* %6, align 4
  %77 = sext i32 %76 to i64
  %78 = getelementptr inbounds [101 x i8], [101 x i8]* %1, i64 0, i64 %77
  %79 = load i8, i8* %78, align 1
  %80 = sext i8 %79 to i32
  %81 = add nsw i32 %80, 10
  %82 = load i32, i32* %6, align 4
  %83 = load i32, i32* %3, align 4
  %84 = sub nsw i32 %82, %83
  %85 = sext i32 %84 to i64
  %86 = getelementptr inbounds [101 x i8], [101 x i8]* %2, i64 0, i64 %85
  %87 = load i8, i8* %86, align 1
  %88 = sext i8 %87 to i32
  %89 = sub nsw i32 %81, %88
  %90 = add nsw i32 %89, 48
  %91 = trunc i32 %90 to i8
  %92 = load i32, i32* %6, align 4
  %93 = sext i32 %92 to i64
  %94 = getelementptr inbounds [101 x i8], [101 x i8]* %1, i64 0, i64 %93
  store i8 %91, i8* %94, align 1
  store i32 1, i32* %8, align 4
  br label %95

95:                                               ; preds = %75, %56
  br label %96

96:                                               ; preds = %95
  %97 = load i32, i32* %6, align 4
  %98 = add nsw i32 %97, -1
  store i32 %98, i32* %6, align 4
  br label %29

99:                                               ; preds = %29
  %100 = load i32, i32* %3, align 4
  %101 = sub nsw i32 %100, 1
  store i32 %101, i32* %6, align 4
  br label %102

102:                                              ; preds = %134, %99
  %103 = load i32, i32* %6, align 4
  %104 = icmp sge i32 %103, 0
  br i1 %104, label %105, label %137

105:                                              ; preds = %102
  %106 = load i32, i32* %8, align 4
  %107 = icmp ne i32 %106, 0
  br i1 %107, label %108, label %114

108:                                              ; preds = %105
  %109 = load i32, i32* %6, align 4
  %110 = sext i32 %109 to i64
  %111 = getelementptr inbounds [101 x i8], [101 x i8]* %1, i64 0, i64 %110
  %112 = load i8, i8* %111, align 1
  %113 = add i8 %112, -1
  store i8 %113, i8* %111, align 1
  br label %114

114:                                              ; preds = %108, %105
  %115 = load i32, i32* %6, align 4
  %116 = sext i32 %115 to i64
  %117 = getelementptr inbounds [101 x i8], [101 x i8]* %1, i64 0, i64 %116
  %118 = load i8, i8* %117, align 1
  %119 = sext i8 %118 to i32
  %120 = icmp slt i32 %119, 48
  br i1 %120, label %121, label %132

121:                                              ; preds = %114
  %122 = load i32, i32* %6, align 4
  %123 = sext i32 %122 to i64
  %124 = getelementptr inbounds [101 x i8], [101 x i8]* %1, i64 0, i64 %123
  %125 = load i8, i8* %124, align 1
  %126 = sext i8 %125 to i32
  %127 = add nsw i32 %126, 10
  %128 = trunc i32 %127 to i8
  %129 = load i32, i32* %6, align 4
  %130 = sext i32 %129 to i64
  %131 = getelementptr inbounds [101 x i8], [101 x i8]* %1, i64 0, i64 %130
  store i8 %128, i8* %131, align 1
  store i32 1, i32* %8, align 4
  br label %133

132:                                              ; preds = %114
  store i32 0, i32* %8, align 4
  br label %133

133:                                              ; preds = %132, %121
  br label %134

134:                                              ; preds = %133
  %135 = load i32, i32* %6, align 4
  %136 = add nsw i32 %135, -1
  store i32 %136, i32* %6, align 4
  br label %102

137:                                              ; preds = %102
  store i32 0, i32* %6, align 4
  br label %138

138:                                              ; preds = %154, %137
  %139 = load i32, i32* %6, align 4
  %140 = sext i32 %139 to i64
  %141 = getelementptr inbounds [101 x i8], [101 x i8]* %1, i64 0, i64 0
  %142 = call i64 @strlen(i8* %141) #3
  %143 = icmp ult i64 %140, %142
  br i1 %143, label %144, label %157

144:                                              ; preds = %138
  %145 = load i32, i32* %6, align 4
  %146 = sext i32 %145 to i64
  %147 = getelementptr inbounds [101 x i8], [101 x i8]* %1, i64 0, i64 %146
  %148 = load i8, i8* %147, align 1
  %149 = sext i8 %148 to i32
  %150 = icmp ne i32 %149, 48
  br i1 %150, label %151, label %153

151:                                              ; preds = %144
  %152 = load i32, i32* %6, align 4
  store i32 %152, i32* %7, align 4
  br label %157

153:                                              ; preds = %144
  br label %154

154:                                              ; preds = %153
  %155 = load i32, i32* %6, align 4
  %156 = add nsw i32 %155, 1
  store i32 %156, i32* %6, align 4
  br label %138

157:                                              ; preds = %151, %138
  %158 = load i32, i32* %7, align 4
  store i32 %158, i32* %6, align 4
  br label %159

159:                                              ; preds = %172, %157
  %160 = load i32, i32* %6, align 4
  %161 = sext i32 %160 to i64
  %162 = getelementptr inbounds [101 x i8], [101 x i8]* %1, i64 0, i64 0
  %163 = call i64 @strlen(i8* %162) #3
  %164 = icmp ult i64 %161, %163
  br i1 %164, label %165, label %175

165:                                              ; preds = %159
  %166 = load i32, i32* %6, align 4
  %167 = sext i32 %166 to i64
  %168 = getelementptr inbounds [101 x i8], [101 x i8]* %1, i64 0, i64 %167
  %169 = load i8, i8* %168, align 1
  %170 = sext i8 %169 to i32
  %171 = call i32 (i8*, ...) @printf(i8* getelementptr inbounds ([3 x i8], [3 x i8]* @.str.2, i64 0, i64 0), i32 %170)
  br label %172

172:                                              ; preds = %165
  %173 = load i32, i32* %6, align 4
  %174 = add nsw i32 %173, 1
  store i32 %174, i32* %6, align 4
  br label %159

175:                                              ; preds = %159
  %176 = call i32 (i8*, ...) @printf(i8* getelementptr inbounds ([2 x i8], [2 x i8]* @.str.3, i64 0, i64 0))
  br label %177

177:                                              ; preds = %175
  %178 = load i32, i32* %4, align 4
  %179 = add nsw i32 %178, 1
  store i32 %179, i32* %4, align 4
  br label %10

180:                                              ; preds = %10
  ret void
}

declare dso_local i32 @__isoc99_scanf(i8*, ...) #1

; Function Attrs: nounwind readonly
declare dso_local i64 @strlen(i8*) #2

declare dso_local i32 @printf(i8*, ...) #1


!llvm.module.flags = !{!0}
!llvm.ident = !{!1}

!0 = !{i32 1, !"wchar_size", i32 4}
!1 = !{!"clang version 10.0.0-4ubuntu1 "}
